target datalayout = "e-m:e-p270:32:32-p271:32:32-p272:64:64-i64:64-i128:128-f80:128-n8:16:32:64-S128"
target triple = "x86_64-pc-linux-gnu"

%struct._XSettingsSetting = type { ptr, i32, %union.anon.1, i64 }
%union.anon.1 = type { ptr }
%struct._XSettingsColor = type { i16, i16, i16, i16 }

; Function Attrs: nounwind uwtable
define hidden i32 @xsettings_setting_equal(ptr noundef %0, ptr noundef %1) #0 {
  %3 = alloca i32, align 4
  %4 = alloca ptr, align 8
  %5 = alloca ptr, align 8
  store ptr %0, ptr %4, align 8
  store ptr %1, ptr %5, align 8
  %6 = load ptr, ptr %4, align 8
  %7 = getelementptr inbounds nuw %struct._XSettingsSetting, ptr %6, i32 0, i32 1
  %8 = load i32, ptr %7, align 8
  %9 = load ptr, ptr %5, align 8
  %10 = getelementptr inbounds nuw %struct._XSettingsSetting, ptr %9, i32 0, i32 1
  %11 = load i32, ptr %10, align 8
  %12 = icmp ne i32 %8, %11
  br i1 %12, label %13, label %14

13:                                               ; preds = %2
  store i32 0, ptr %3, align 4
  br label %99

14:                                               ; preds = %2
  %15 = load ptr, ptr %4, align 8
  %16 = getelementptr inbounds nuw %struct._XSettingsSetting, ptr %15, i32 0, i32 0
  %17 = load ptr, ptr %16, align 8
  %18 = load ptr, ptr %5, align 8
  %19 = getelementptr inbounds nuw %struct._XSettingsSetting, ptr %18, i32 0, i32 0
  %20 = load ptr, ptr %19, align 8
  %21 = call i32 @strcmp(ptr noundef %17, ptr noundef %20) #8
  %22 = icmp ne i32 %21, 0
  br i1 %22, label %23, label %24

23:                                               ; preds = %14
  store i32 0, ptr %3, align 4
  br label %99

24:                                               ; preds = %14
  %25 = load ptr, ptr %4, align 8
  %26 = getelementptr inbounds nuw %struct._XSettingsSetting, ptr %25, i32 0, i32 1
  %27 = load i32, ptr %26, align 8
  switch i32 %27, label %98 [
    i32 0, label %28
    i32 2, label %37
    i32 1, label %88
  ]

28:                                               ; preds = %24
  %29 = load ptr, ptr %4, align 8
  %30 = getelementptr inbounds nuw %struct._XSettingsSetting, ptr %29, i32 0, i32 2
  %31 = load i32, ptr %30, align 8
  %32 = load ptr, ptr %5, align 8
  %33 = getelementptr inbounds nuw %struct._XSettingsSetting, ptr %32, i32 0, i32 2
  %34 = load i32, ptr %33, align 8
  %35 = icmp eq i32 %31, %34
  %36 = zext i1 %35 to i32
  store i32 %36, ptr %3, align 4
  br label %99

37:                                               ; preds = %24
  %38 = load ptr, ptr %4, align 8
  %39 = getelementptr inbounds nuw %struct._XSettingsSetting, ptr %38, i32 0, i32 2
  %40 = getelementptr inbounds nuw %struct._XSettingsColor, ptr %39, i32 0, i32 0
  %41 = load i16, ptr %40, align 8
  %42 = zext i16 %41 to i32
  %43 = load ptr, ptr %5, align 8
  %44 = getelementptr inbounds nuw %struct._XSettingsSetting, ptr %43, i32 0, i32 2
  %45 = getelementptr inbounds nuw %struct._XSettingsColor, ptr %44, i32 0, i32 0
  %46 = load i16, ptr %45, align 8
  %47 = zext i16 %46 to i32
  %48 = icmp eq i32 %42, %47
  br i1 %48, label %49, label %85

49:                                               ; preds = %37
  %50 = load ptr, ptr %4, align 8
  %51 = getelementptr inbounds nuw %struct._XSettingsSetting, ptr %50, i32 0, i32 2
  %52 = getelementptr inbounds nuw %struct._XSettingsColor, ptr %51, i32 0, i32 1
  %53 = load i16, ptr %52, align 2
  %54 = zext i16 %53 to i32
  %55 = load ptr, ptr %5, align 8
  %56 = getelementptr inbounds nuw %struct._XSettingsSetting, ptr %55, i32 0, i32 2
  %57 = getelementptr inbounds nuw %struct._XSettingsColor, ptr %56, i32 0, i32 1
  %58 = load i16, ptr %57, align 2
  %59 = zext i16 %58 to i32
  %60 = icmp eq i32 %54, %59
  br i1 %60, label %61, label %85

61:                                               ; preds = %49
  %62 = load ptr, ptr %4, align 8
  %63 = getelementptr inbounds nuw %struct._XSettingsSetting, ptr %62, i32 0, i32 2
  %64 = getelementptr inbounds nuw %struct._XSettingsColor, ptr %63, i32 0, i32 2
  %65 = load i16, ptr %64, align 4
  %66 = zext i16 %65 to i32
  %67 = load ptr, ptr %5, align 8
  %68 = getelementptr inbounds nuw %struct._XSettingsSetting, ptr %67, i32 0, i32 2
  %69 = getelementptr inbounds nuw %struct._XSettingsColor, ptr %68, i32 0, i32 2
  %70 = load i16, ptr %69, align 4
  %71 = zext i16 %70 to i32
  %72 = icmp eq i32 %66, %71
  br i1 %72, label %73, label %85

73:                                               ; preds = %61
  %74 = load ptr, ptr %4, align 8
  %75 = getelementptr inbounds nuw %struct._XSettingsSetting, ptr %74, i32 0, i32 2
  %76 = getelementptr inbounds nuw %struct._XSettingsColor, ptr %75, i32 0, i32 3
  %77 = load i16, ptr %76, align 2
  %78 = zext i16 %77 to i32
  %79 = load ptr, ptr %5, align 8
  %80 = getelementptr inbounds nuw %struct._XSettingsSetting, ptr %79, i32 0, i32 2
  %81 = getelementptr inbounds nuw %struct._XSettingsColor, ptr %80, i32 0, i32 3
  %82 = load i16, ptr %81, align 2
  %83 = zext i16 %82 to i32
  %84 = icmp eq i32 %78, %83
  br label %85

85:                                               ; preds = %73, %61, %49, %37
  %86 = phi i1 [ false, %61 ], [ false, %49 ], [ false, %37 ], [ %84, %73 ]
  %87 = zext i1 %86 to i32
  store i32 %87, ptr %3, align 4
  br label %99

88:                                               ; preds = %24
  %89 = load ptr, ptr %4, align 8
  %90 = getelementptr inbounds nuw %struct._XSettingsSetting, ptr %89, i32 0, i32 2
  %91 = load ptr, ptr %90, align 8
  %92 = load ptr, ptr %5, align 8
  %93 = getelementptr inbounds nuw %struct._XSettingsSetting, ptr %92, i32 0, i32 2
  %94 = load ptr, ptr %93, align 8
  %95 = call i32 @strcmp(ptr noundef %91, ptr noundef %94) #8
  %96 = icmp eq i32 %95, 0
  %97 = zext i1 %96 to i32
  store i32 %97, ptr %3, align 4
  br label %99

98:                                               ; preds = %24
  store i32 0, ptr %3, align 4
  br label %99

99:                                               ; preds = %98, %88, %85, %28, %23, %13
  %100 = load i32, ptr %3, align 4
  ret i32 %100
}