; Function Attrs: mustprogress nofree norecurse nounwind willreturn memory(read, inaccessiblemem: none) uwtable
define hidden range(i32 0, 2) i32 @xsettings_setting_equal(ptr noundef readonly captures(none) %0, ptr noundef readonly captures(none) %1) local_unnamed_addr #10 {
  %3 = getelementptr inbounds nuw i8, ptr %0, i64 8
  %4 = load i32, ptr %3, align 8
  %5 = getelementptr inbounds nuw i8, ptr %1, i64 8
  %6 = load i32, ptr %5, align 8
  %.not = icmp eq i32 %4, %6
  br i1 %.not, label %7, label %49

7:                                                ; preds = %2
  %8 = load ptr, ptr %0, align 8
  %9 = load ptr, ptr %1, align 8
  %10 = tail call i32 @strcmp(ptr noundef nonnull dereferenceable(1) %8, ptr noundef nonnull dereferenceable(1) %9) #16
  %.not18 = icmp eq i32 %10, 0
  br i1 %.not18, label %11, label %49

11:                                               ; preds = %7
  switch i32 %4, label %49 [
    i32 0, label %12
    i32 2, label %18
    i32 1, label %42
  ]

12:                                               ; preds = %11
  %13 = getelementptr inbounds nuw i8, ptr %0, i64 16
  %14 = load i32, ptr %13, align 8
  %15 = getelementptr inbounds nuw i8, ptr %1, i64 16
  %16 = load i32, ptr %15, align 8
  %17 = icmp eq i32 %14, %16
  br label %49

18:                                               ; preds = %11
  %19 = getelementptr inbounds nuw i8, ptr %0, i64 16
  %20 = load i16, ptr %19, align 8
  %21 = getelementptr inbounds nuw i8, ptr %1, i64 16
  %22 = load i16, ptr %21, align 8
  %23 = icmp eq i16 %20, %22
  br i1 %23, label %24, label %49

24:                                               ; preds = %18
  %25 = getelementptr inbounds nuw i8, ptr %0, i64 18
  %26 = load i16, ptr %25, align 2
  %27 = getelementptr inbounds nuw i8, ptr %1, i64 18
  %28 = load i16, ptr %27, align 2
  %29 = icmp eq i16 %26, %28
  br i1 %29, label %30, label %49

30:                                               ; preds = %24
  %31 = getelementptr inbounds nuw i8, ptr %0, i64 20
  %32 = load i16, ptr %31, align 4
  %33 = getelementptr inbounds nuw i8, ptr %1, i64 20
  %34 = load i16, ptr %33, align 4
  %35 = icmp eq i16 %32, %34
  br i1 %35, label %36, label %49

36:                                               ; preds = %30
  %37 = getelementptr inbounds nuw i8, ptr %0, i64 22
  %38 = load i16, ptr %37, align 2
  %39 = getelementptr inbounds nuw i8, ptr %1, i64 22
  %40 = load i16, ptr %39, align 2
  %41 = icmp eq i16 %38, %40
  br label %49

42:                                               ; preds = %11
  %43 = getelementptr inbounds nuw i8, ptr %0, i64 16
  %44 = load ptr, ptr %43, align 8
  %45 = getelementptr inbounds nuw i8, ptr %1, i64 16
  %46 = load ptr, ptr %45, align 8
  %47 = tail call i32 @strcmp(ptr noundef nonnull dereferenceable(1) %44, ptr noundef nonnull dereferenceable(1) %46) #16
  %48 = icmp eq i32 %47, 0
  br label %49

49:                                               ; preds = %11, %18, %24, %30, %36, %7, %2, %42, %12
  %.0.shrunk = phi i1 [ %48, %42 ], [ %17, %12 ], [ false, %2 ], [ false, %7 ], [ false, %30 ], [ false, %24 ], [ false, %18 ], [ %41, %36 ], [ false, %11 ]
  %.0 = zext i1 %.0.shrunk to i32
  ret i32 %.0
}